target datalayout = "e-m:e-p270:32:32-p271:32:32-p272:64:64-i64:64-i128:128-f80:128-n8:16:32:64-S128"
target triple = "x86_64-pc-linux-gnu"

@mdct_window = internal global [512 x float] zeroinitializer, align 16

; Function Attrs: cold nounwind optsize uwtable
define internal void @init_imdct_window() #0 {
  %1 = alloca i32, align 4
  %2 = alloca i32, align 4
  %3 = alloca float, align 4
  %4 = alloca float, align 4
  %5 = alloca float, align 4
  call void @llvm.lifetime.start.p0(i64 4, ptr %1) #10
  call void @llvm.lifetime.start.p0(i64 4, ptr %2) #10
  store i32 0, ptr %1, align 4, !tbaa !35
  store i32 255, ptr %2, align 4, !tbaa !35
  br label %6

6:                                                ; preds = %57, %0
  %7 = load i32, ptr %1, align 4, !tbaa !35
  %8 = icmp slt i32 %7, 128
  br i1 %8, label %9, label %62

9:                                                ; preds = %6
  call void @llvm.lifetime.start.p0(i64 4, ptr %3) #10
  %10 = load i32, ptr %1, align 4, !tbaa !35
  %11 = sitofp i32 %10 to double
  %12 = fadd nsz double %11, 5.000000e-01
  %13 = fdiv nsz double %12, 2.560000e+02
  %14 = fsub nsz double %13, 5.000000e-01
  %15 = fmul nsz double %14, 0x400921FB54442D18
  %16 = call nsz double @llvm.sin.f64(double %15)
  %17 = fadd nsz double %16, 1.000000e+00
  %18 = fptrunc nsz double %17 to float
  store float %18, ptr %3, align 4, !tbaa !33
  call void @llvm.lifetime.start.p0(i64 4, ptr %4) #10
  %19 = load i32, ptr %2, align 4, !tbaa !35
  %20 = sitofp i32 %19 to double
  %21 = fadd nsz double %20, 5.000000e-01
  %22 = fdiv nsz double %21, 2.560000e+02
  %23 = fsub nsz double %22, 5.000000e-01
  %24 = fmul nsz double %23, 0x400921FB54442D18
  %25 = call nsz double @llvm.sin.f64(double %24)
  %26 = fadd nsz double %25, 1.000000e+00
  %27 = fptrunc nsz double %26 to float
  store float %27, ptr %4, align 4, !tbaa !33
  call void @llvm.lifetime.start.p0(i64 4, ptr %5) #10
  %28 = load float, ptr %3, align 4, !tbaa !33
  %29 = load float, ptr %3, align 4, !tbaa !33
  %30 = load float, ptr %4, align 4, !tbaa !33
  %31 = load float, ptr %4, align 4, !tbaa !33
  %32 = fmul nsz float %30, %31
  %33 = call nsz float @llvm.fmuladd.f32(float %28, float %29, float %32)
  %34 = fpext nsz float %33 to double
  %35 = fmul nsz double 5.000000e-01, %34
  %36 = fptrunc nsz double %35 to float
  store float %36, ptr %5, align 4, !tbaa !33
  %37 = load float, ptr %3, align 4, !tbaa !33
  %38 = load float, ptr %5, align 4, !tbaa !33
  %39 = fdiv nsz float %37, %38
  %40 = load i32, ptr %1, align 4, !tbaa !35
  %41 = sub nsw i32 511, %40
  %42 = sext i32 %41 to i64
  %43 = getelementptr inbounds [512 x float], ptr @mdct_window, i64 0, i64 %42
  store float %39, ptr %43, align 4, !tbaa !33
  %44 = load i32, ptr %1, align 4, !tbaa !35
  %45 = sext i32 %44 to i64
  %46 = getelementptr inbounds [512 x float], ptr @mdct_window, i64 0, i64 %45
  store float %39, ptr %46, align 4, !tbaa !33
  %47 = load float, ptr %4, align 4, !tbaa !33
  %48 = load float, ptr %5, align 4, !tbaa !33
  %49 = fdiv nsz float %47, %48
  %50 = load i32, ptr %2, align 4, !tbaa !35
  %51 = sub nsw i32 511, %50
  %52 = sext i32 %51 to i64
  %53 = getelementptr inbounds [512 x float], ptr @mdct_window, i64 0, i64 %52
  store float %49, ptr %53, align 4, !tbaa !33
  %54 = load i32, ptr %2, align 4, !tbaa !35
  %55 = sext i32 %54 to i64
  %56 = getelementptr inbounds [512 x float], ptr @mdct_window, i64 0, i64 %55
  store float %49, ptr %56, align 4, !tbaa !33
  call void @llvm.lifetime.end.p0(i64 4, ptr %5) #10
  call void @llvm.lifetime.end.p0(i64 4, ptr %4) #10
  call void @llvm.lifetime.end.p0(i64 4, ptr %3) #10
  br label %57

57:                                               ; preds = %9
  %58 = load i32, ptr %1, align 4, !tbaa !35
  %59 = add nsw i32 %58, 1
  store i32 %59, ptr %1, align 4, !tbaa !35
  %60 = load i32, ptr %2, align 4, !tbaa !35
  %61 = add nsw i32 %60, -1
  store i32 %61, ptr %2, align 4, !tbaa !35
  br label %6, !llvm.loop !82

62:                                               ; preds = %6
  call void @llvm.lifetime.end.p0(i64 4, ptr %2) #10
  call void @llvm.lifetime.end.p0(i64 4, ptr %1) #10
  ret void
}