; Function Attrs: cold nofree norecurse nosync nounwind optsize memory(write, argmem: none, inaccessiblemem: none) uwtable
define internal fastcc void @init_imdct_window() unnamed_addr #4 {
  br label %1

1:                                                ; preds = %0, %1
  %indvars.iv19 = phi i64 [ 255, %0 ], [ %indvars.iv.next20, %1 ]
  %indvars.iv = phi i64 [ 0, %0 ], [ %indvars.iv.next, %1 ]
  %2 = trunc nuw nsw i64 %indvars.iv to i32
  %3 = uitofp nneg i32 %2 to double
  %4 = fadd nsz double %3, 5.000000e-01
  %5 = fmul nsz double %4, 3.906250e-03
  %6 = fadd nsz double %5, -5.000000e-01
  %7 = fmul nsz double %6, 0x400921FB54442D18
  %8 = tail call nsz double @llvm.sin.f64(double %7)
  %9 = fadd nsz double %8, 1.000000e+00
  %10 = fptrunc nsz double %9 to float
  %11 = trunc nuw nsw i64 %indvars.iv19 to i32
  %12 = sitofp i32 %11 to double
  %13 = fadd nsz double %12, 5.000000e-01
  %14 = fmul nsz double %13, 3.906250e-03
  %15 = fadd nsz double %14, -5.000000e-01
  %16 = fmul nsz double %15, 0x400921FB54442D18
  %17 = tail call nsz double @llvm.sin.f64(double %16)
  %18 = fadd nsz double %17, 1.000000e+00
  %19 = fptrunc nsz double %18 to float
  %20 = fmul nsz float %19, %19
  %21 = tail call nsz float @llvm.fmuladd.f32(float %10, float %10, float %20)
  %22 = fmul nsz float %21, 5.000000e-01
  %23 = fdiv nsz float %10, %22
  %24 = sub nuw nsw i64 511, %indvars.iv
  %25 = getelementptr inbounds nuw [512 x float], ptr @mdct_window, i64 0, i64 %24
  store float %23, ptr %25, align 4, !tbaa !28
  %26 = getelementptr inbounds nuw [512 x float], ptr @mdct_window, i64 0, i64 %indvars.iv
  store float %23, ptr %26, align 4, !tbaa !28
  %27 = fdiv nsz float %19, %22
  %28 = sub nuw nsw i64 511, %indvars.iv19
  %29 = getelementptr inbounds nuw [512 x float], ptr @mdct_window, i64 0, i64 %28
  store float %27, ptr %29, align 4, !tbaa !28
  %30 = getelementptr inbounds [512 x float], ptr @mdct_window, i64 0, i64 %indvars.iv19
  store float %27, ptr %30, align 4, !tbaa !28
  %indvars.iv.next = add nuw nsw i64 %indvars.iv, 1
  %indvars.iv.next20 = add nsw i64 %indvars.iv19, -1
  %exitcond.not = icmp eq i64 %indvars.iv.next, 128
  br i1 %exitcond.not, label %31, label %1, !llvm.loop !92

31:                                               ; preds = %1
  ret void
}